target datalayout = "e-m:e-p270:32:32-p271:32:32-p272:64:64-i64:64-i128:128-f80:128-n8:16:32:64-S128"
target triple = "x86_64-pc-linux-gnu"

%union.PJ_COORD = type { [4 x double] }
%struct.PJ_XYZT = type { double, double, double, double }

; Function Attrs: inlinehint mustprogress nounwind willreturn memory(read) uwtable
define available_externally i32 @isspace(i32 noundef %0) #13 {
  %2 = alloca i32, align 4
  store i32 %0, ptr %2, align 4, !tbaa !20
  %3 = call ptr @__ctype_b_loc() #28
  %4 = load ptr, ptr %3, align 8, !tbaa !124
  %5 = load i32, ptr %2, align 4, !tbaa !20
  %6 = sext i32 %5 to i64
  %7 = getelementptr inbounds i16, ptr %4, i64 %6
  %8 = load i16, ptr %7, align 2, !tbaa !126
  %9 = zext i16 %8 to i32
  %10 = and i32 %9, 8192
  ret i32 %10
}

; Function Attrs: mustprogress nounwind uwtable
define internal noundef ptr @_ZL6columnPKci(ptr noundef %0, i32 noundef %1) #4 {
  %3 = alloca ptr, align 8
  %4 = alloca ptr, align 8
  %5 = alloca i32, align 4
  %6 = alloca i32, align 4
  %7 = alloca i32, align 4
  store ptr %0, ptr %4, align 8, !tbaa !18
  store i32 %1, ptr %5, align 4, !tbaa !20
  call void @llvm.lifetime.start.p0(i64 4, ptr %6) #3
  %8 = load i32, ptr %5, align 4, !tbaa !20
  %9 = icmp sle i32 %8, 0
  br i1 %9, label %10, label %12

10:                                               ; preds = %2
  %11 = load ptr, ptr %4, align 8, !tbaa !18
  store ptr %11, ptr %3, align 8
  store i32 1, ptr %7, align 4
  br label %57

12:                                               ; preds = %2
  store i32 0, ptr %6, align 4, !tbaa !20
  br label %13

13:                                               ; preds = %52, %12
  %14 = load i32, ptr %6, align 4, !tbaa !20
  %15 = load i32, ptr %5, align 4, !tbaa !20
  %16 = icmp slt i32 %14, %15
  br i1 %16, label %17, label %55

17:                                               ; preds = %13
  br label %18

18:                                               ; preds = %24, %17
  %19 = load ptr, ptr %4, align 8, !tbaa !18
  %20 = load i8, ptr %19, align 1, !tbaa !28
  %21 = sext i8 %20 to i32
  %22 = call i32 @isspace(i32 noundef %21) #23
  %23 = icmp ne i32 %22, 0
  br i1 %23, label %24, label %27

24:                                               ; preds = %18
  %25 = load ptr, ptr %4, align 8, !tbaa !18
  %26 = getelementptr inbounds nuw i8, ptr %25, i32 1
  store ptr %26, ptr %4, align 8, !tbaa !18
  br label %18, !llvm.loop !121

27:                                               ; preds = %18
  %28 = load i32, ptr %6, align 4, !tbaa !20
  %29 = load i32, ptr %5, align 4, !tbaa !20
  %30 = sub nsw i32 %29, 1
  %31 = icmp eq i32 %28, %30
  br i1 %31, label %32, label %33

32:                                               ; preds = %27
  br label %55

33:                                               ; preds = %27
  br label %34

34:                                               ; preds = %48, %33
  %35 = load ptr, ptr %4, align 8, !tbaa !18
  %36 = load i8, ptr %35, align 1, !tbaa !28
  %37 = sext i8 %36 to i32
  %38 = icmp ne i32 0, %37
  br i1 %38, label %39, label %46

39:                                               ; preds = %34
  %40 = load ptr, ptr %4, align 8, !tbaa !18
  %41 = load i8, ptr %40, align 1, !tbaa !28
  %42 = sext i8 %41 to i32
  %43 = call i32 @isspace(i32 noundef %42) #23
  %44 = icmp ne i32 %43, 0
  %45 = xor i1 %44, true
  br label %46

46:                                               ; preds = %39, %34
  %47 = phi i1 [ false, %34 ], [ %45, %39 ]
  br i1 %47, label %48, label %51

48:                                               ; preds = %46
  %49 = load ptr, ptr %4, align 8, !tbaa !18
  %50 = getelementptr inbounds nuw i8, ptr %49, i32 1
  store ptr %50, ptr %4, align 8, !tbaa !18
  br label %34, !llvm.loop !122

51:                                               ; preds = %46
  br label %52

52:                                               ; preds = %51
  %53 = load i32, ptr %6, align 4, !tbaa !20
  %54 = add nsw i32 %53, 1
  store i32 %54, ptr %6, align 4, !tbaa !20
  br label %13, !llvm.loop !123

55:                                               ; preds = %32, %13
  %56 = load ptr, ptr %4, align 8, !tbaa !18
  store ptr %56, ptr %3, align 8
  store i32 1, ptr %7, align 4
  br label %57

57:                                               ; preds = %55, %10
  call void @llvm.lifetime.end.p0(i64 4, ptr %6) #3
  %58 = load ptr, ptr %3, align 8
  ret ptr %58
}

; Function Attrs: mustprogress uwtable
define internal noundef double @_ZL4coldPKci(ptr noundef %0, i32 noundef %1) #5 {
  %3 = alloca double, align 8
  %4 = alloca ptr, align 8
  %5 = alloca i32, align 4
  %6 = alloca ptr, align 8
  %7 = alloca double, align 8
  %8 = alloca ptr, align 8
  %9 = alloca i32, align 4
  store ptr %0, ptr %4, align 8, !tbaa !18
  store i32 %1, ptr %5, align 4, !tbaa !20
  call void @llvm.lifetime.start.p0(i64 8, ptr %6) #3
  call void @llvm.lifetime.start.p0(i64 8, ptr %7) #3
  call void @llvm.lifetime.start.p0(i64 8, ptr %8) #3
  %10 = load ptr, ptr %4, align 8, !tbaa !18
  %11 = load i32, ptr %5, align 4, !tbaa !20
  %12 = call noundef ptr @_ZL6columnPKci(ptr noundef %10, i32 noundef %11)
  store ptr %12, ptr %8, align 8, !tbaa !18
  %13 = load ptr, ptr %8, align 8, !tbaa !18
  %14 = call noundef double @_Z11proj_strtodPKcPPc(ptr noundef %13, ptr noundef %6)
  store double %14, ptr %7, align 8, !tbaa !53
  %15 = load ptr, ptr %6, align 8, !tbaa !18
  %16 = load ptr, ptr %8, align 8, !tbaa !18
  %17 = icmp eq ptr %15, %16
  br i1 %17, label %18, label %19

18:                                               ; preds = %2
  store double 0x7FF0000000000000, ptr %3, align 8
  store i32 1, ptr %9, align 4
  br label %21

19:                                               ; preds = %2
  %20 = load double, ptr %7, align 8, !tbaa !53
  store double %20, ptr %3, align 8
  store i32 1, ptr %9, align 4
  br label %21

21:                                               ; preds = %19, %18
  call void @llvm.lifetime.end.p0(i64 8, ptr %8) #3
  call void @llvm.lifetime.end.p0(i64 8, ptr %7) #3
  call void @llvm.lifetime.end.p0(i64 8, ptr %6) #3
  %22 = load double, ptr %3, align 8
  ret double %22
}

; Function Attrs: mustprogress uwtable
define hidden void @_Z16parse_input_linePKcPidd(ptr dead_on_unwind noalias writable sret(%union.PJ_COORD) align 8 %0, ptr noundef %1, ptr noundef %2, double noundef %3, double noundef %4) #5 {
  %6 = alloca ptr, align 8
  %7 = alloca ptr, align 8
  %8 = alloca double, align 8
  %9 = alloca double, align 8
  %10 = alloca %union.PJ_COORD, align 8
  %11 = alloca %union.PJ_COORD, align 8
  %12 = alloca i32, align 4
  %13 = alloca i32, align 4
  store ptr %1, ptr %6, align 8, !tbaa !18
  store ptr %2, ptr %7, align 8, !tbaa !99
  store double %3, ptr %8, align 8, !tbaa !53
  store double %4, ptr %9, align 8, !tbaa !53
  call void @llvm.lifetime.start.p0(i64 32, ptr %10) #3
  call void @proj_coord(ptr dead_on_unwind writable sret(%union.PJ_COORD) align 8 %10, double noundef 0x7FF0000000000000, double noundef 0x7FF0000000000000, double noundef 0x7FF0000000000000, double noundef 0x7FF0000000000000)
  call void @llvm.lifetime.start.p0(i64 32, ptr %11) #3
  call void @llvm.memcpy.p0.p0.i64(ptr align 8 %11, ptr align 8 %10, i64 32, i1 false), !tbaa.struct !97
  call void @llvm.lifetime.start.p0(i64 4, ptr %12) #3
  %14 = call ptr @__errno_location() #28
  %15 = load i32, ptr %14, align 4, !tbaa !20
  store i32 %15, ptr %12, align 4, !tbaa !20
  %16 = call ptr @__errno_location() #28
  store i32 0, ptr %16, align 4, !tbaa !20
  %17 = load double, ptr %8, align 8, !tbaa !53
  %18 = getelementptr inbounds nuw %struct.PJ_XYZT, ptr %11, i32 0, i32 2
  store double %17, ptr %18, align 8, !tbaa !28
  %19 = load double, ptr %9, align 8, !tbaa !53
  %20 = getelementptr inbounds nuw %struct.PJ_XYZT, ptr %11, i32 0, i32 3
  store double %19, ptr %20, align 8, !tbaa !28
  %21 = load ptr, ptr %6, align 8, !tbaa !18
  %22 = load ptr, ptr %7, align 8, !tbaa !99
  %23 = getelementptr inbounds i32, ptr %22, i64 0
  %24 = load i32, ptr %23, align 4, !tbaa !20
  %25 = call noundef double @_ZL4coldPKci(ptr noundef %21, i32 noundef %24)
  %26 = getelementptr inbounds nuw %struct.PJ_XYZT, ptr %11, i32 0, i32 0
  store double %25, ptr %26, align 8, !tbaa !28
  %27 = load ptr, ptr %6, align 8, !tbaa !18
  %28 = load ptr, ptr %7, align 8, !tbaa !99
  %29 = getelementptr inbounds i32, ptr %28, i64 1
  %30 = load i32, ptr %29, align 4, !tbaa !20
  %31 = call noundef double @_ZL4coldPKci(ptr noundef %27, i32 noundef %30)
  %32 = getelementptr inbounds nuw %struct.PJ_XYZT, ptr %11, i32 0, i32 1
  store double %31, ptr %32, align 8, !tbaa !28
  %33 = getelementptr inbounds nuw %struct.PJ_XYZT, ptr %11, i32 0, i32 2
  %34 = load double, ptr %33, align 8, !tbaa !28
  %35 = fcmp oeq double %34, 0x7FF0000000000000
  br i1 %35, label %36, label %43

36:                                               ; preds = %5
  %37 = load ptr, ptr %6, align 8, !tbaa !18
  %38 = load ptr, ptr %7, align 8, !tbaa !99
  %39 = getelementptr inbounds i32, ptr %38, i64 2
  %40 = load i32, ptr %39, align 4, !tbaa !20
  %41 = call noundef double @_ZL4coldPKci(ptr noundef %37, i32 noundef %40)
  %42 = getelementptr inbounds nuw %struct.PJ_XYZT, ptr %11, i32 0, i32 2
  store double %41, ptr %42, align 8, !tbaa !28
  br label %43

43:                                               ; preds = %36, %5
  %44 = getelementptr inbounds nuw %struct.PJ_XYZT, ptr %11, i32 0, i32 3
  %45 = load double, ptr %44, align 8, !tbaa !28
  %46 = fcmp oeq double %45, 0x7FF0000000000000
  br i1 %46, label %47, label %54

47:                                               ; preds = %43
  %48 = load ptr, ptr %6, align 8, !tbaa !18
  %49 = load ptr, ptr %7, align 8, !tbaa !99
  %50 = getelementptr inbounds i32, ptr %49, i64 3
  %51 = load i32, ptr %50, align 4, !tbaa !20
  %52 = call noundef double @_ZL4coldPKci(ptr noundef %48, i32 noundef %51)
  %53 = getelementptr inbounds nuw %struct.PJ_XYZT, ptr %11, i32 0, i32 3
  store double %52, ptr %53, align 8, !tbaa !28
  br label %54

54:                                               ; preds = %47, %43
  %55 = call ptr @__errno_location() #28
  %56 = load i32, ptr %55, align 4, !tbaa !20
  %57 = icmp ne i32 0, %56
  br i1 %57, label %58, label %59

58:                                               ; preds = %54
  call void @llvm.memcpy.p0.p0.i64(ptr align 8 %0, ptr align 8 %10, i64 32, i1 false), !tbaa.struct !97
  store i32 1, ptr %13, align 4
  br label %62

59:                                               ; preds = %54
  %60 = load i32, ptr %12, align 4, !tbaa !20
  %61 = call ptr @__errno_location() #28
  store i32 %60, ptr %61, align 4, !tbaa !20
  call void @llvm.memcpy.p0.p0.i64(ptr align 8 %0, ptr align 8 %11, i64 32, i1 false), !tbaa.struct !97
  store i32 1, ptr %13, align 4
  br label %62

62:                                               ; preds = %59, %58
  call void @llvm.lifetime.end.p0(i64 4, ptr %12) #3
  call void @llvm.lifetime.end.p0(i64 32, ptr %11) #3
  call void @llvm.lifetime.end.p0(i64 32, ptr %10) #3
  ret void
}