; Function Attrs: mustprogress uwtable
define hidden void @_Z16parse_input_linePKcPidd(ptr dead_on_unwind noalias writable writeonly sret(%union.PJ_COORD) align 8 captures(none) %0, ptr noundef %1, ptr noundef readonly captures(none) %2, double noundef %3, double noundef %4) local_unnamed_addr #16 {
  %6 = alloca ptr, align 8
  %7 = alloca ptr, align 8
  %8 = alloca ptr, align 8
  %9 = alloca ptr, align 8
  %10 = alloca %union.PJ_COORD, align 8
  call void @llvm.lifetime.start.p0(i64 32, ptr nonnull %10) #30
  call void @proj_coord(ptr dead_on_unwind nonnull writable sret(%union.PJ_COORD) align 8 %10, double noundef 0x7FF0000000000000, double noundef 0x7FF0000000000000, double noundef 0x7FF0000000000000, double noundef 0x7FF0000000000000)
  %11 = tail call ptr @__errno_location() #38
  %12 = load i32, ptr %11, align 4, !tbaa !41
  store i32 0, ptr %11, align 4, !tbaa !41
  %13 = load i32, ptr %2, align 4, !tbaa !41
  call void @llvm.lifetime.start.p0(i64 8, ptr nonnull %9) #30
  %14 = icmp slt i32 %13, 1
  br i1 %14, label %_ZL4coldPKci.exit, label %.preheader20.i.i

.preheader20.i.i:                                 ; preds = %5
  %15 = add nsw i32 %13, -1
  %16 = tail call ptr @__ctype_b_loc() #38
  %17 = load ptr, ptr %16, align 8, !tbaa !87
  br label %.preheader19.i.i

.preheader19.i.i:                                 ; preds = %.critedge.i.i, %.preheader20.i.i
  %.026.i.i = phi i32 [ 0, %.preheader20.i.i ], [ %35, %.critedge.i.i ]
  %.01425.i.i = phi ptr [ %1, %.preheader20.i.i ], [ %.3.lcssa.i.i, %.critedge.i.i ]
  br label %18

18:                                               ; preds = %18, %.preheader19.i.i
  %.2.i.i = phi ptr [ %24, %18 ], [ %.01425.i.i, %.preheader19.i.i ]
  %19 = load i8, ptr %.2.i.i, align 1, !tbaa !23
  %20 = sext i8 %19 to i64
  %21 = getelementptr inbounds i16, ptr %17, i64 %20
  %22 = load i16, ptr %21, align 2, !tbaa !89
  %23 = and i16 %22, 8192
  %.not.i.i = icmp eq i16 %23, 0
  %24 = getelementptr inbounds nuw i8, ptr %.2.i.i, i64 1
  br i1 %.not.i.i, label %25, label %18, !llvm.loop !91

25:                                               ; preds = %18
  %26 = icmp eq i32 %.026.i.i, %15
  br i1 %26, label %_ZL4coldPKci.exit, label %.preheader.i.i

.preheader.i.i:                                   ; preds = %25
  %.not1721.i.i = icmp eq i8 %19, 0
  br i1 %.not1721.i.i, label %.critedge.i.i, label %.lr.ph.i.i

.lr.ph.i.i:                                       ; preds = %.preheader.i.i, %32
  %27 = phi i8 [ %34, %32 ], [ %19, %.preheader.i.i ]
  %.322.i.i = phi ptr [ %33, %32 ], [ %.2.i.i, %.preheader.i.i ]
  %28 = sext i8 %27 to i64
  %29 = getelementptr inbounds i16, ptr %17, i64 %28
  %30 = load i16, ptr %29, align 2, !tbaa !89
  %31 = and i16 %30, 8192
  %.not18.i.i = icmp eq i16 %31, 0
  br i1 %.not18.i.i, label %32, label %.critedge.i.i

32:                                               ; preds = %.lr.ph.i.i
  %33 = getelementptr inbounds nuw i8, ptr %.322.i.i, i64 1
  %34 = load i8, ptr %33, align 1, !tbaa !23
  %.not17.i.i = icmp eq i8 %34, 0
  br i1 %.not17.i.i, label %.critedge.i.i, label %.lr.ph.i.i, !llvm.loop !97

.critedge.i.i:                                    ; preds = %32, %.lr.ph.i.i, %.preheader.i.i
  %.3.lcssa.i.i = phi ptr [ %.2.i.i, %.preheader.i.i ], [ %.322.i.i, %.lr.ph.i.i ], [ %33, %32 ]
  %35 = add nuw nsw i32 %.026.i.i, 1
  br label %.preheader19.i.i

_ZL4coldPKci.exit:                                ; preds = %25, %5
  %.013.i.i = phi ptr [ %1, %5 ], [ %.2.i.i, %25 ]
  %36 = call noundef double @_Z11proj_strtodPKcPPc(ptr noundef %.013.i.i, ptr noundef nonnull %9)
  %37 = load ptr, ptr %9, align 8, !tbaa !16
  %38 = icmp eq ptr %37, %.013.i.i
  %..i = select i1 %38, double 0x7FF0000000000000, double %36
  call void @llvm.lifetime.end.p0(i64 8, ptr nonnull %9) #30
  %39 = getelementptr inbounds nuw i8, ptr %2, i64 4
  %40 = load i32, ptr %39, align 4, !tbaa !41
  call void @llvm.lifetime.start.p0(i64 8, ptr nonnull %8) #30
  %41 = icmp slt i32 %40, 1
  br i1 %41, label %_ZL4coldPKci.exit34, label %.preheader20.i.i18

.preheader20.i.i18:                               ; preds = %_ZL4coldPKci.exit
  %42 = add nsw i32 %40, -1
  %43 = tail call ptr @__ctype_b_loc() #38
  %44 = load ptr, ptr %43, align 8, !tbaa !87
  br label %.preheader19.i.i19

.preheader19.i.i19:                               ; preds = %.critedge.i.i29, %.preheader20.i.i18
  %.026.i.i20 = phi i32 [ 0, %.preheader20.i.i18 ], [ %62, %.critedge.i.i29 ]
  %.01425.i.i21 = phi ptr [ %1, %.preheader20.i.i18 ], [ %.3.lcssa.i.i30, %.critedge.i.i29 ]
  br label %45

45:                                               ; preds = %45, %.preheader19.i.i19
  %.2.i.i22 = phi ptr [ %51, %45 ], [ %.01425.i.i21, %.preheader19.i.i19 ]
  %46 = load i8, ptr %.2.i.i22, align 1, !tbaa !23
  %47 = sext i8 %46 to i64
  %48 = getelementptr inbounds i16, ptr %44, i64 %47
  %49 = load i16, ptr %48, align 2, !tbaa !89
  %50 = and i16 %49, 8192
  %.not.i.i23 = icmp eq i16 %50, 0
  %51 = getelementptr inbounds nuw i8, ptr %.2.i.i22, i64 1
  br i1 %.not.i.i23, label %52, label %45, !llvm.loop !91

52:                                               ; preds = %45
  %53 = icmp eq i32 %.026.i.i20, %42
  br i1 %53, label %_ZL4coldPKci.exit34, label %.preheader.i.i24

.preheader.i.i24:                                 ; preds = %52
  %.not1721.i.i25 = icmp eq i8 %46, 0
  br i1 %.not1721.i.i25, label %.critedge.i.i29, label %.lr.ph.i.i26

.lr.ph.i.i26:                                     ; preds = %.preheader.i.i24, %59
  %54 = phi i8 [ %61, %59 ], [ %46, %.preheader.i.i24 ]
  %.322.i.i27 = phi ptr [ %60, %59 ], [ %.2.i.i22, %.preheader.i.i24 ]
  %55 = sext i8 %54 to i64
  %56 = getelementptr inbounds i16, ptr %44, i64 %55
  %57 = load i16, ptr %56, align 2, !tbaa !89
  %58 = and i16 %57, 8192
  %.not18.i.i28 = icmp eq i16 %58, 0
  br i1 %.not18.i.i28, label %59, label %.critedge.i.i29

59:                                               ; preds = %.lr.ph.i.i26
  %60 = getelementptr inbounds nuw i8, ptr %.322.i.i27, i64 1
  %61 = load i8, ptr %60, align 1, !tbaa !23
  %.not17.i.i31 = icmp eq i8 %61, 0
  br i1 %.not17.i.i31, label %.critedge.i.i29, label %.lr.ph.i.i26, !llvm.loop !97

.critedge.i.i29:                                  ; preds = %59, %.lr.ph.i.i26, %.preheader.i.i24
  %.3.lcssa.i.i30 = phi ptr [ %.2.i.i22, %.preheader.i.i24 ], [ %.322.i.i27, %.lr.ph.i.i26 ], [ %60, %59 ]
  %62 = add nuw nsw i32 %.026.i.i20, 1
  br label %.preheader19.i.i19

_ZL4coldPKci.exit34:                              ; preds = %52, %_ZL4coldPKci.exit
  %.013.i.i32 = phi ptr [ %1, %_ZL4coldPKci.exit ], [ %.2.i.i22, %52 ]
  %63 = call noundef double @_Z11proj_strtodPKcPPc(ptr noundef %.013.i.i32, ptr noundef nonnull %8)
  %64 = load ptr, ptr %8, align 8, !tbaa !16
  %65 = icmp eq ptr %64, %.013.i.i32
  %..i33 = select i1 %65, double 0x7FF0000000000000, double %63
  call void @llvm.lifetime.end.p0(i64 8, ptr nonnull %8) #30
  %66 = fcmp oeq double %3, 0x7FF0000000000000
  br i1 %66, label %67, label %95

67:                                               ; preds = %_ZL4coldPKci.exit34
  %68 = getelementptr inbounds nuw i8, ptr %2, i64 8
  %69 = load i32, ptr %68, align 4, !tbaa !41
  call void @llvm.lifetime.start.p0(i64 8, ptr nonnull %7) #30
  %70 = icmp slt i32 %69, 1
  br i1 %70, label %_ZL4coldPKci.exit51, label %.preheader20.i.i35

.preheader20.i.i35:                               ; preds = %67
  %71 = add nsw i32 %69, -1
  %72 = tail call ptr @__ctype_b_loc() #38
  %73 = load ptr, ptr %72, align 8, !tbaa !87
  br label %.preheader19.i.i36

.preheader19.i.i36:                               ; preds = %.critedge.i.i46, %.preheader20.i.i35
  %.026.i.i37 = phi i32 [ 0, %.preheader20.i.i35 ], [ %91, %.critedge.i.i46 ]
  %.01425.i.i38 = phi ptr [ %1, %.preheader20.i.i35 ], [ %.3.lcssa.i.i47, %.critedge.i.i46 ]
  br label %74

74:                                               ; preds = %74, %.preheader19.i.i36
  %.2.i.i39 = phi ptr [ %80, %74 ], [ %.01425.i.i38, %.preheader19.i.i36 ]
  %75 = load i8, ptr %.2.i.i39, align 1, !tbaa !23
  %76 = sext i8 %75 to i64
  %77 = getelementptr inbounds i16, ptr %73, i64 %76
  %78 = load i16, ptr %77, align 2, !tbaa !89
  %79 = and i16 %78, 8192
  %.not.i.i40 = icmp eq i16 %79, 0
  %80 = getelementptr inbounds nuw i8, ptr %.2.i.i39, i64 1
  br i1 %.not.i.i40, label %81, label %74, !llvm.loop !91

81:                                               ; preds = %74
  %82 = icmp eq i32 %.026.i.i37, %71
  br i1 %82, label %_ZL4coldPKci.exit51, label %.preheader.i.i41

.preheader.i.i41:                                 ; preds = %81
  %.not1721.i.i42 = icmp eq i8 %75, 0
  br i1 %.not1721.i.i42, label %.critedge.i.i46, label %.lr.ph.i.i43

.lr.ph.i.i43:                                     ; preds = %.preheader.i.i41, %88
  %83 = phi i8 [ %90, %88 ], [ %75, %.preheader.i.i41 ]
  %.322.i.i44 = phi ptr [ %89, %88 ], [ %.2.i.i39, %.preheader.i.i41 ]
  %84 = sext i8 %83 to i64
  %85 = getelementptr inbounds i16, ptr %73, i64 %84
  %86 = load i16, ptr %85, align 2, !tbaa !89
  %87 = and i16 %86, 8192
  %.not18.i.i45 = icmp eq i16 %87, 0
  br i1 %.not18.i.i45, label %88, label %.critedge.i.i46

88:                                               ; preds = %.lr.ph.i.i43
  %89 = getelementptr inbounds nuw i8, ptr %.322.i.i44, i64 1
  %90 = load i8, ptr %89, align 1, !tbaa !23
  %.not17.i.i48 = icmp eq i8 %90, 0
  br i1 %.not17.i.i48, label %.critedge.i.i46, label %.lr.ph.i.i43, !llvm.loop !97

.critedge.i.i46:                                  ; preds = %88, %.lr.ph.i.i43, %.preheader.i.i41
  %.3.lcssa.i.i47 = phi ptr [ %.2.i.i39, %.preheader.i.i41 ], [ %.322.i.i44, %.lr.ph.i.i43 ], [ %89, %88 ]
  %91 = add nuw nsw i32 %.026.i.i37, 1
  br label %.preheader19.i.i36

_ZL4coldPKci.exit51:                              ; preds = %81, %67
  %.013.i.i49 = phi ptr [ %1, %67 ], [ %.2.i.i39, %81 ]
  %92 = call noundef double @_Z11proj_strtodPKcPPc(ptr noundef %.013.i.i49, ptr noundef nonnull %7)
  %93 = load ptr, ptr %7, align 8, !tbaa !16
  %94 = icmp eq ptr %93, %.013.i.i49
  %..i50 = select i1 %94, double 0x7FF0000000000000, double %92
  call void @llvm.lifetime.end.p0(i64 8, ptr nonnull %7) #30
  br label %95

95:                                               ; preds = %_ZL4coldPKci.exit51, %_ZL4coldPKci.exit34
  %.sroa.6.0 = phi double [ %..i50, %_ZL4coldPKci.exit51 ], [ %3, %_ZL4coldPKci.exit34 ]
  %96 = fcmp oeq double %4, 0x7FF0000000000000
  br i1 %96, label %97, label %125

97:                                               ; preds = %95
  %98 = getelementptr inbounds nuw i8, ptr %2, i64 12
  %99 = load i32, ptr %98, align 4, !tbaa !41
  call void @llvm.lifetime.start.p0(i64 8, ptr nonnull %6) #30
  %100 = icmp slt i32 %99, 1
  br i1 %100, label %_ZL4coldPKci.exit68, label %.preheader20.i.i52

.preheader20.i.i52:                               ; preds = %97
  %101 = add nsw i32 %99, -1
  %102 = tail call ptr @__ctype_b_loc() #38
  %103 = load ptr, ptr %102, align 8, !tbaa !87
  br label %.preheader19.i.i53

.preheader19.i.i53:                               ; preds = %.critedge.i.i63, %.preheader20.i.i52
  %.026.i.i54 = phi i32 [ 0, %.preheader20.i.i52 ], [ %121, %.critedge.i.i63 ]
  %.01425.i.i55 = phi ptr [ %1, %.preheader20.i.i52 ], [ %.3.lcssa.i.i64, %.critedge.i.i63 ]
  br label %104

104:                                              ; preds = %104, %.preheader19.i.i53
  %.2.i.i56 = phi ptr [ %110, %104 ], [ %.01425.i.i55, %.preheader19.i.i53 ]
  %105 = load i8, ptr %.2.i.i56, align 1, !tbaa !23
  %106 = sext i8 %105 to i64
  %107 = getelementptr inbounds i16, ptr %103, i64 %106
  %108 = load i16, ptr %107, align 2, !tbaa !89
  %109 = and i16 %108, 8192
  %.not.i.i57 = icmp eq i16 %109, 0
  %110 = getelementptr inbounds nuw i8, ptr %.2.i.i56, i64 1
  br i1 %.not.i.i57, label %111, label %104, !llvm.loop !91

111:                                              ; preds = %104
  %112 = icmp eq i32 %.026.i.i54, %101
  br i1 %112, label %_ZL4coldPKci.exit68, label %.preheader.i.i58

.preheader.i.i58:                                 ; preds = %111
  %.not1721.i.i59 = icmp eq i8 %105, 0
  br i1 %.not1721.i.i59, label %.critedge.i.i63, label %.lr.ph.i.i60

.lr.ph.i.i60:                                     ; preds = %.preheader.i.i58, %118
  %113 = phi i8 [ %120, %118 ], [ %105, %.preheader.i.i58 ]
  %.322.i.i61 = phi ptr [ %119, %118 ], [ %.2.i.i56, %.preheader.i.i58 ]
  %114 = sext i8 %113 to i64
  %115 = getelementptr inbounds i16, ptr %103, i64 %114
  %116 = load i16, ptr %115, align 2, !tbaa !89
  %117 = and i16 %116, 8192
  %.not18.i.i62 = icmp eq i16 %117, 0
  br i1 %.not18.i.i62, label %118, label %.critedge.i.i63

118:                                              ; preds = %.lr.ph.i.i60
  %119 = getelementptr inbounds nuw i8, ptr %.322.i.i61, i64 1
  %120 = load i8, ptr %119, align 1, !tbaa !23
  %.not17.i.i65 = icmp eq i8 %120, 0
  br i1 %.not17.i.i65, label %.critedge.i.i63, label %.lr.ph.i.i60, !llvm.loop !97

.critedge.i.i63:                                  ; preds = %118, %.lr.ph.i.i60, %.preheader.i.i58
  %.3.lcssa.i.i64 = phi ptr [ %.2.i.i56, %.preheader.i.i58 ], [ %.322.i.i61, %.lr.ph.i.i60 ], [ %119, %118 ]
  %121 = add nuw nsw i32 %.026.i.i54, 1
  br label %.preheader19.i.i53

_ZL4coldPKci.exit68:                              ; preds = %111, %97
  %.013.i.i66 = phi ptr [ %1, %97 ], [ %.2.i.i56, %111 ]
  %122 = call noundef double @_Z11proj_strtodPKcPPc(ptr noundef %.013.i.i66, ptr noundef nonnull %6)
  %123 = load ptr, ptr %6, align 8, !tbaa !16
  %124 = icmp eq ptr %123, %.013.i.i66
  %..i67 = select i1 %124, double 0x7FF0000000000000, double %122
  call void @llvm.lifetime.end.p0(i64 8, ptr nonnull %6) #30
  br label %125

125:                                              ; preds = %_ZL4coldPKci.exit68, %95
  %.sroa.9.0 = phi double [ %..i67, %_ZL4coldPKci.exit68 ], [ %4, %95 ]
  %126 = load i32, ptr %11, align 4, !tbaa !41
  %.not = icmp eq i32 %126, 0
  br i1 %.not, label %128, label %127

127:                                              ; preds = %125
  call void @llvm.memcpy.p0.p0.i64(ptr noundef nonnull align 8 dereferenceable(32) %0, ptr noundef nonnull align 8 dereferenceable(32) %10, i64 32, i1 false), !tbaa.struct !98
  br label %129

128:                                              ; preds = %125
  store i32 %12, ptr %11, align 4, !tbaa !41
  store double %..i, ptr %0, align 8
  %.sroa.5.0..sroa_idx2 = getelementptr inbounds nuw i8, ptr %0, i64 8
  store double %..i33, ptr %.sroa.5.0..sroa_idx2, align 8
  %.sroa.6.0..sroa_idx4 = getelementptr inbounds nuw i8, ptr %0, i64 16
  store double %.sroa.6.0, ptr %.sroa.6.0..sroa_idx4, align 8
  %.sroa.9.0..sroa_idx6 = getelementptr inbounds nuw i8, ptr %0, i64 24
  store double %.sroa.9.0, ptr %.sroa.9.0..sroa_idx6, align 8, !tbaa !23
  br label %129

129:                                              ; preds = %128, %127
  call void @llvm.lifetime.end.p0(i64 32, ptr nonnull %10) #30
  ret void
}